target datalayout = "e-m:e-p270:32:32-p271:32:32-p272:64:64-i64:64-i128:128-f80:128-n8:16:32:64-S128"
target triple = "x86_64-pc-linux-gnu"

%struct._CharList = type { ptr, ptr }

; Function Attrs: nounwind uwtable
define dso_local ptr @pkg_prependToList(ptr noundef %0, ptr noundef %1) #0 {
  %3 = alloca ptr, align 8
  %4 = alloca ptr, align 8
  %5 = alloca ptr, align 8
  %6 = alloca ptr, align 8
  %7 = alloca i32, align 4
  store ptr %0, ptr %4, align 8, !tbaa !9
  store ptr %1, ptr %5, align 8, !tbaa !11
  call void @llvm.lifetime.start.p0(i64 8, ptr %6) #7
  %8 = call noalias ptr @uprv_malloc_77(i64 noundef 16) #10
  store ptr %8, ptr %6, align 8, !tbaa !9
  %9 = load ptr, ptr %6, align 8, !tbaa !9
  %10 = icmp eq ptr %9, null
  br i1 %10, label %11, label %12

11:                                               ; preds = %2
  store ptr null, ptr %3, align 8
  store i32 1, ptr %7, align 4
  br label %20

12:                                               ; preds = %2
  %13 = load ptr, ptr %5, align 8, !tbaa !11
  %14 = load ptr, ptr %6, align 8, !tbaa !9
  %15 = getelementptr inbounds nuw %struct._CharList, ptr %14, i32 0, i32 0
  store ptr %13, ptr %15, align 8, !tbaa !15
  %16 = load ptr, ptr %4, align 8, !tbaa !9
  %17 = load ptr, ptr %6, align 8, !tbaa !9
  %18 = getelementptr inbounds nuw %struct._CharList, ptr %17, i32 0, i32 1
  store ptr %16, ptr %18, align 8, !tbaa !18
  %19 = load ptr, ptr %6, align 8, !tbaa !9
  store ptr %19, ptr %3, align 8
  store i32 1, ptr %7, align 4
  br label %20

20:                                               ; preds = %12, %11
  call void @llvm.lifetime.end.p0(i64 8, ptr %6) #7
  %21 = load ptr, ptr %3, align 8
  ret ptr %21
}