; Function Attrs: nounwind uwtable
define dso_local noalias noundef ptr @pkg_prependToList(ptr noundef %0, ptr noundef %1) local_unnamed_addr #0 {
  %3 = tail call noalias dereferenceable_or_null(16) ptr @uprv_malloc_77(i64 noundef 16) #15
  %4 = icmp eq ptr %3, null
  br i1 %4, label %7, label %5

5:                                                ; preds = %2
  store ptr %1, ptr %3, align 8, !tbaa !4
  %6 = getelementptr inbounds nuw i8, ptr %3, i64 8
  store ptr %0, ptr %6, align 8, !tbaa !12
  br label %7

7:                                                ; preds = %2, %5
  ret ptr %3
}